; Function Attrs: mustprogress nounwind uwtable
define dso_local void @_ZN5clang7CodeGen15CodeGenFunction19SourceLocToDebugLocENS_14SourceLocationE(ptr dead_on_unwind noalias writable sret(%"class.llvm::DebugLoc") align 8 %0, ptr nocapture noundef nonnull readonly align 8 dereferenceable(6488) %1, i32 %2) local_unnamed_addr #0 align 2 {
  %4 = getelementptr inbounds nuw i8, ptr %1, i64 3196
  %5 = load i8, ptr %4, align 4
  %6 = trunc i8 %5 to i1
  %7 = getelementptr inbounds nuw i8, ptr %1, i64 3184
  %8 = load ptr, ptr %7, align 8
  %.not4 = icmp eq ptr %8, null
  %.not = select i1 %6, i1 true, i1 %.not4
  br i1 %.not, label %10, label %9

9:                                                ; preds = %3
  tail call void @_ZN5clang7CodeGen11CGDebugInfo19SourceLocToDebugLocENS_14SourceLocationE(ptr dead_on_unwind writable sret(%"class.llvm::DebugLoc") align 8 %0, ptr noundef nonnull align 8 dereferenceable(2472) %8, i32 %2) #21
  br label %11

10:                                               ; preds = %3
  store ptr null, ptr %0, align 8
  br label %11

11:                                               ; preds = %10, %9
  ret void
}